target datalayout = "e-m:e-p270:32:32-p271:32:32-p272:64:64-i64:64-i128:128-f80:128-n8:16:32:64-S128"
target triple = "x86_64-pc-linux-gnu"

%struct.AVProbeData = type { ptr, ptr, i32, ptr }

@avi_headers = internal constant [6 x [8 x i8]] [[8 x i8] c"RIFFAVI ", [8 x i8] c"RIFFAVIX", [8 x i8] c"RIFFAVI\19", [8 x i8] c"ON2 ON2f", [8 x i8] c"RIFFAMV ", [8 x i8] zeroinitializer], align 16

; Function Attrs: nounwind uwtable
define internal i32 @avi_probe(ptr noundef %0) #0 {
  %2 = alloca i32, align 4
  %3 = alloca ptr, align 8
  %4 = alloca i32, align 4
  %5 = alloca i32, align 4
  store ptr %0, ptr %3, align 8, !tbaa !4
  call void @llvm.lifetime.start.p0(i64 4, ptr %4) #12
  store i32 0, ptr %4, align 4, !tbaa !9
  br label %6

6:                                                ; preds = %39, %1
  %7 = load i32, ptr %4, align 4, !tbaa !9
  %8 = sext i32 %7 to i64
  %9 = getelementptr inbounds [6 x [8 x i8]], ptr @avi_headers, i64 0, i64 %8
  %10 = getelementptr inbounds [8 x i8], ptr %9, i64 0, i64 0
  %11 = load i8, ptr %10, align 8, !tbaa !11
  %12 = icmp ne i8 %11, 0
  br i1 %12, label %13, label %42

13:                                               ; preds = %6
  %14 = load ptr, ptr %3, align 8, !tbaa !4
  %15 = getelementptr inbounds nuw %struct.AVProbeData, ptr %14, i32 0, i32 1
  %16 = load ptr, ptr %15, align 8, !tbaa !12
  %17 = load i32, ptr %16, align 1, !tbaa !11
  %18 = load i32, ptr %4, align 4, !tbaa !9
  %19 = sext i32 %18 to i64
  %20 = getelementptr inbounds [6 x [8 x i8]], ptr @avi_headers, i64 0, i64 %19
  %21 = getelementptr inbounds [8 x i8], ptr %20, i64 0, i64 0
  %22 = load i32, ptr %21, align 8, !tbaa !11
  %23 = icmp eq i32 %17, %22
  br i1 %23, label %24, label %38

24:                                               ; preds = %13
  %25 = load ptr, ptr %3, align 8, !tbaa !4
  %26 = getelementptr inbounds nuw %struct.AVProbeData, ptr %25, i32 0, i32 1
  %27 = load ptr, ptr %26, align 8, !tbaa !12
  %28 = getelementptr inbounds i8, ptr %27, i64 8
  %29 = load i32, ptr %28, align 1, !tbaa !11
  %30 = load i32, ptr %4, align 4, !tbaa !9
  %31 = sext i32 %30 to i64
  %32 = getelementptr inbounds [6 x [8 x i8]], ptr @avi_headers, i64 0, i64 %31
  %33 = getelementptr inbounds [8 x i8], ptr %32, i64 0, i64 0
  %34 = getelementptr inbounds i8, ptr %33, i64 4
  %35 = load i32, ptr %34, align 1, !tbaa !11
  %36 = icmp eq i32 %29, %35
  br i1 %36, label %37, label %38

37:                                               ; preds = %24
  store i32 100, ptr %2, align 4
  store i32 1, ptr %5, align 4
  br label %43

38:                                               ; preds = %24, %13
  br label %39

39:                                               ; preds = %38
  %40 = load i32, ptr %4, align 4, !tbaa !9
  %41 = add nsw i32 %40, 1
  store i32 %41, ptr %4, align 4, !tbaa !9
  br label %6, !llvm.loop !15

42:                                               ; preds = %6
  store i32 0, ptr %2, align 4
  store i32 1, ptr %5, align 4
  br label %43

43:                                               ; preds = %42, %37
  call void @llvm.lifetime.end.p0(i64 4, ptr %4) #12
  %44 = load i32, ptr %2, align 4
  ret i32 %44
}