; Function Attrs: nofree norecurse nosync nounwind memory(read, inaccessiblemem: none) uwtable
define internal range(i32 0, 101) i32 @avi_probe(ptr noundef readonly captures(none) %0) #0 {
  %2 = getelementptr inbounds nuw i8, ptr %0, i64 8
  %3 = load ptr, ptr %2, align 8, !tbaa !4
  %4 = load i32, ptr %3, align 1, !tbaa !11
  %5 = getelementptr inbounds nuw i8, ptr %3, i64 8
  br label %6

6:                                                ; preds = %1, %15
  %indvars.iv = phi i64 [ 0, %1 ], [ %indvars.iv.next, %15 ]
  %7 = phi ptr [ @avi_headers, %1 ], [ %16, %15 ]
  %8 = load i32, ptr %7, align 8, !tbaa !11
  %9 = icmp eq i32 %4, %8
  br i1 %9, label %10, label %15

10:                                               ; preds = %6
  %11 = load i32, ptr %5, align 1, !tbaa !11
  %12 = getelementptr inbounds nuw i8, ptr %7, i64 4
  %13 = load i32, ptr %12, align 1, !tbaa !11
  %14 = icmp eq i32 %11, %13
  br i1 %14, label %17, label %15

15:                                               ; preds = %6, %10
  %indvars.iv.next = add nuw nsw i64 %indvars.iv, 1
  %16 = getelementptr inbounds nuw [6 x [8 x i8]], ptr @avi_headers, i64 0, i64 %indvars.iv.next
  %exitcond = icmp eq i64 %indvars.iv.next, 5
  br i1 %exitcond, label %17, label %6, !llvm.loop !12

17:                                               ; preds = %15, %10
  %.06 = phi i32 [ 100, %10 ], [ 0, %15 ]
  ret i32 %.06
}